Microchip MPLAB XC8 Compiler V1.41 ()

Linker command line:

-W-3 --edf=C:\Program Files (x86)\Microchip\xc8\v1.41\dat\en_msgs.txt -cs \
  -h+dist/default/production\DoADC.X.production.sym \
  --cmf=dist/default/production\DoADC.X.production.cmf -z -Q18F4520 \
  -oD:\WTepms\Temp\sahk.2 -Mdist/default/production/DoADC.X.production.map \
  -E1 -ver=XC8 -ASTACK=0D6h-05ffh -pstack=STACK -ACODE=00h-07FFFh \
  -ACONST=00h-07FFFh -ASMALLCONST=0600h-06FFhx122 \
  -AMEDIUMCONST=0600h-07FFFh -ACOMRAM=01h-07Fh -AABS1=00h-05FFh \
  -ABIGRAM=01h-05FFh -ARAM=080h-0FFh,0100h-01FFhx5 -ABANK0=080h-0FFh \
  -ABANK1=0100h-01FFh -ABANK2=0200h-02FFh -ABANK3=0300h-03FFh \
  -ABANK4=0400h-04FFh -ABANK5=0500h-05FFh -ASFR=0F80h-0FFFh \
  -preset_vec=00h,intcode,intcodelo,powerup,init -pramtop=0600h \
  -psmallconst=SMALLCONST -pmediumconst=MEDIUMCONST -pconst=CONST \
  -AFARRAM=00h-00h -ACONFIG=0300000h-030000Dh -pconfig=CONFIG \
  -AIDLOC=0200000h-0200007h -pidloc=IDLOC -AEEDATA=0F00000h-0F000FFh \
  -peeprom_data=EEDATA \
  -prdata=COMRAM,nvrram=COMRAM,nvbit=COMRAM,rbss=COMRAM,rbit=COMRAM \
  -pfarbss=FARRAM,fardata=FARRAM,nvFARRAM=FARRAM \
  -pintsave_regs=BIGRAM,bigbss=BIGRAM,bigdata=BIGRAM -pbss=RAM \
  -pidata=CODE,irdata=CODE,ibigdata=CODE,ifardata=CODE -prparam=COMRAM \
  D:\WTepms\Temp\sahk.obj dist/default/production\DoADC.X.production.obj 

Object code version is 3.11

Machine type is 18F4520

Call graph: (short form)




                Name                               Link     Load   Length Selector   Space Scale
D:\WTepms\Temp\sahk.obj
                init                                  0        0        4        0       0
                idloc                            200000   200000        8   200000       0
                config                           300000   300000        E   300000       0
dist/default/production\DoADC.X.production.obj
                smallconst                          600      600       1A      300       0
                text40                              BD2      BD2       AE      30D       0
                text39                              A1E      A1E       E6      30D       0
                text38                              92A      92A       F4      30D       0
                text37                              FD0      FD0       24      30D       0
                text36                             10A8     10A8       14      30D       0
                text35                             107A     107A       18      30D       0
                text34                             113C     113C        E      30D       0
                text33                             10BC     10BC       10      30D       0
                text32                             112E     112E        E      30D       0
                text31                             1120     1120        E      30D       0
                text30                              F4C      F4C       32      30D       0
                text29                             1156     1156        C      30D       0
                text28                             1092     1092       16      30D       0
                text27                             117E     117E        6      30D       0
                text26                             1178     1178        6      30D       0
                text25                              ECE      ECE       42      30D       0
                text24                              D16      D16       90      30D       0
                text23                             1062     1062       18      30D       0
                text22                             1112     1112        E      30D       0
                text21                              E8C      E8C       42      30D       0
                text20                              C80      C80       96      30D       0
                text19                             1104     1104        E      30D       0
                text18                              DF8      DF8       52      30D       0
                text17                              DA6      DA6       52      30D       0
                text16                              E4A      E4A       42      30D       0
                text15                              FAA      FAA       26      30D       0
                text14                             1014     1014       1E      30D       0
                text13                              61A      61A      310      30D       0
                text12                             10F6     10F6        E      30D       0
                text11                             104A     104A       18      30D       0
                text10                             1032     1032       18      30D       0
                text9                              10E8     10E8        E      30D       0
                text8                              116A     116A        8      30D       0
                text7                              1172     1172        6      30D       0
                text6                              10DA     10DA        E      30D       0
                text5                              10CC     10CC        E      30D       0
                text4                               F10      F10       3C      30D       0
                text3                              114A     114A        C      30D       0
                text2                              1162     1162        8      30D       0
                text1                               F7E      F7E       2C      30D       0
                text0                               B04      B04       CE      30D       0
                cstackCOMRAM                          1        1       2B        1       1
                bssBANK0                             80       80       56       80       1
                bssCOMRAM                            2C       2C        5        1       1
                cinit                               FF4      FF4       20      30D       0

TOTAL           Name                               Link     Load   Length     Space
        CLASS   STACK          

        CLASS   CODE           
                init                                  0        0        4         0
                text40                              BD2      BD2       AE         0
                text39                              A1E      A1E       E6         0
                text38                              92A      92A       F4         0
                text37                              FD0      FD0       24         0
                text36                             10A8     10A8       14         0
                text35                             107A     107A       18         0
                text34                             113C     113C        E         0
                text33                             10BC     10BC       10         0
                text32                             112E     112E        E         0
                text31                             1120     1120        E         0
                text30                              F4C      F4C       32         0
                text29                             1156     1156        C         0
                text28                             1092     1092       16         0
                text27                             117E     117E        6         0
                text26                             1178     1178        6         0
                text25                              ECE      ECE       42         0
                text24                              D16      D16       90         0
                text23                             1062     1062       18         0
                text22                             1112     1112        E         0
                text21                              E8C      E8C       42         0
                text20                              C80      C80       96         0
                text19                             1104     1104        E         0
                text18                              DF8      DF8       52         0
                text17                              DA6      DA6       52         0
                text16                              E4A      E4A       42         0
                text15                              FAA      FAA       26         0
                text14                             1014     1014       1E         0
                text13                              61A      61A      310         0
                text12                             10F6     10F6        E         0
                text11                             104A     104A       18         0
                text10                             1032     1032       18         0
                text9                              10E8     10E8        E         0
                text8                              116A     116A        8         0
                text7                              1172     1172        6         0
                text6                              10DA     10DA        E         0
                text5                              10CC     10CC        E         0
                text4                               F10      F10       3C         0
                text3                              114A     114A        C         0
                text2                              1162     1162        8         0
                text1                               F7E      F7E       2C         0
                text0                               B04      B04       CE         0
                cinit                               FF4      FF4       20         0

        CLASS   CONST          

        CLASS   SMALLCONST     
                smallconst                          600      600       1A         0

        CLASS   MEDIUMCONST    

        CLASS   COMRAM         
                cstackCOMRAM                          1        1       2B         1
                bssCOMRAM                            2C       2C        5         1

        CLASS   ABS1           

        CLASS   BIGRAM         

        CLASS   RAM            

        CLASS   BANK0          
                bssBANK0                             80       80       56         1

        CLASS   BANK1          

        CLASS   BANK2          

        CLASS   BANK3          

        CLASS   BANK4          

        CLASS   BANK5          

        CLASS   SFR            

        CLASS   FARRAM         

        CLASS   CONFIG         
                config                           300000   300000        E         0

        CLASS   IDLOC          
                idloc                            200000   200000        8         0

        CLASS   EEDATA         



SEGMENTS        Name                           Load    Length   Top    Selector   Space  Class

                reset_vec                      000000  000004  000004         0       0  CODE    
                cstackCOMRAM                   000001  000030  000031         1       1  COMRAM  
                bssBANK0                       000080  000056  0000D6        80       1  BANK0   
                smallconst                     000600  00001A  00061A       300       0  SMALLCON
                text13                         00061A  000B6A  001184       30D       0  CODE    
                idloc                          200000  000008  200008    200000       0  IDLOC   
                config                         300000  00000E  30000E    300000       0  CONFIG  


UNUSED ADDRESS RANGES

        Name                Unused          Largest block    Delta
        BANK0            0000D6-0000FF               2A
        BANK1            000100-0001FF              100
        BANK2            000200-0002FF              100
        BANK3            000300-0003FF              100
        BANK4            000400-0004FF              100
        BANK5            000500-0005FF              100
        BIGRAM           000031-00007F               4F
                         0000D6-0005FF              52A
        CODE             000004-0005FF              5FC
                         001184-007FFF             6E7C
        COMRAM           000031-00007F               4F
        CONST            000004-0005FF              5FC
                         001184-007FFF             6E7C
        EEDATA           F00000-F000FF              100
        MEDIUMCONST      001184-007FFF             6E7C
        RAM              0000D6-0005FF              100
        SFR              000F80-000FFF               80
        SMALLCONST       001184-007FFF              100
        STACK            0000D6-0005FF              52A

                                  Symbol Table

?___ftdiv                  cstackCOMRAM 00000C
?___ftmul                  cstackCOMRAM 00001B
?___ftpack                 cstackCOMRAM 000001
?___lwdiv                  cstackCOMRAM 000001
?___lwmod                  cstackCOMRAM 000008
?___lwtoft                 cstackCOMRAM 000009
?___wmul                   cstackCOMRAM 000001
?_adcRead                  cstackCOMRAM 000003
?_sprintf                  cstackCOMRAM 00000D
_ADCON0                    (abs)        000FC2
_ADCON0bits                (abs)        000FC2
_ADCON1                    (abs)        000FC1
_ADCON1bits                (abs)        000FC1
_ADCON2                    (abs)        000FC0
_ADCON2bits                (abs)        000FC0
_ADRESH                    (abs)        000FC4
_ADRESL                    (abs)        000FC3
_INTCONbits                (abs)        000FF2
_LATDbits                  (abs)        000F8C
_PIE1bits                  (abs)        000F9D
_PIR1bits                  (abs)        000F9E
_RCREG                     (abs)        000FAE
_RCSTA                     (abs)        000FAB
_RCSTAbits                 (abs)        000FAB
_SPBRG                     (abs)        000FAF
_TRISDbits                 (abs)        000F95
_TXREG                     (abs)        000FAD
_TXSTA                     (abs)        000FAC
_TXSTAbits                 (abs)        000FAC
__CFG_BOREN$OFF            (abs)        000000
__CFG_BORV$3               (abs)        000000
__CFG_CCP2MX$PORTC         (abs)        000000
__CFG_FCMEN$OFF            (abs)        000000
__CFG_IESO$OFF             (abs)        000000
__CFG_LPT1OSC$OFF          (abs)        000000
__CFG_LVP$ON               (abs)        000000
__CFG_MCLRE$ON             (abs)        000000
__CFG_OSC$HS               (abs)        000000
__CFG_PBADEN$OFF           (abs)        000000
__CFG_PWRT$OFF             (abs)        000000
__CFG_STVREN$ON            (abs)        000000
__CFG_WDT$OFF              (abs)        000000
__CFG_WDTPS$32768          (abs)        000000
__CFG_XINST$OFF            (abs)        000000
__HRAM                     (abs)        000000
__Habs1                    abs1         000000
__Hbank0                   bank0        000000
__Hbank1                   bank1        000000
__Hbank2                   bank2        000000
__Hbank3                   bank3        000000
__Hbank4                   bank4        000000
__Hbank5                   bank5        000000
__Hbigbss                  bigbss       000000
__Hbigdata                 bigdata      000000
__Hbigram                  bigram       000000
__Hbss                     bss          000000
__HbssBANK0                bssBANK0     000000
__HbssCOMRAM               bssCOMRAM    000000
__Hcinit                   cinit        000000
__Hclrtext                 clrtext      000000
__Hcomram                  comram       000000
__Hconfig                  config       30000E
__Hconst                   const        000000
__HcstackCOMRAM            cstackCOMRAM 000000
__Hdata                    data         000000
__Heeprom_data             eeprom_data  000000
__Hfarbss                  farbss       000000
__Hfardata                 fardata      000000
__Hibigdata                ibigdata     000000
__Hidata                   idata        000000
__Hidloc                   idloc        200008
__Hifardata                ifardata     000000
__Hinit                    init         000004
__Hintcode                 intcode      000000
__Hintcode_body            intcode_body 000000
__Hintcodelo               intcodelo    000000
__Hintentry                intentry     000000
__Hintret                  intret       000000
__Hintsave_regs            intsave_regs 000000
__Hirdata                  irdata       000000
__Hmediumconst             mediumconst  000000
__HnvFARRAM                nvFARRAM     000000
__Hnvbit                   nvbit        000000
__Hnvrram                  nvrram       000000
__Hparam                   rparam       000000
__Hpowerup                 powerup      000000
__Hram                     ram          000000
__Hramtop                  ramtop       000600
__Hrbit                    rbit         000000
__Hrbss                    rbss         000000
__Hrdata                   rdata        000000
__Hreset_vec               reset_vec    000000
__Hrparam                  rparam       000000
__Hsfr                     sfr          000000
__Hsmallconst              smallconst   00061A
__Hspace_0                 (abs)        30000E
__Hspace_1                 (abs)        0000D6
__Hspace_2                 (abs)        000000
__Hstack                   stack        000000
__Hstruct                  struct       000000
__Htemp                    temp         000000
__Htext                    text         000000
__Htext0                   text0        000000
__Htext1                   text1        000000
__Htext10                  text10       000000
__Htext11                  text11       000000
__Htext12                  text12       000000
__Htext13                  text13       000000
__Htext14                  text14       000000
__Htext15                  text15       000000
__Htext16                  text16       000000
__Htext17                  text17       000000
__Htext18                  text18       000000
__Htext19                  text19       000000
__Htext2                   text2        000000
__Htext20                  text20       000000
__Htext21                  text21       000000
__Htext22                  text22       000000
__Htext23                  text23       000000
__Htext24                  text24       000000
__Htext25                  text25       000000
__Htext26                  text26       000000
__Htext27                  text27       000000
__Htext28                  text28       000000
__Htext29                  text29       000000
__Htext3                   text3        000000
__Htext30                  text30       000000
__Htext31                  text31       000000
__Htext32                  text32       000000
__Htext33                  text33       000000
__Htext34                  text34       000000
__Htext35                  text35       000000
__Htext36                  text36       000000
__Htext37                  text37       000000
__Htext38                  text38       000000
__Htext39                  text39       000000
__Htext4                   text4        000000
__Htext40                  text40       000000
__Htext5                   text5        000000
__Htext6                   text6        000000
__Htext7                   text7        000000
__Htext8                   text8        000000
__Htext9                   text9        000000
__LRAM                     (abs)        000001
__Labs1                    abs1         000000
__Lbank0                   bank0        000000
__Lbank1                   bank1        000000
__Lbank2                   bank2        000000
__Lbank3                   bank3        000000
__Lbank4                   bank4        000000
__Lbank5                   bank5        000000
__Lbigbss                  bigbss       000000
__Lbigdata                 bigdata      000000
__Lbigram                  bigram       000000
__Lbss                     bss          000000
__LbssBANK0                bssBANK0     000000
__LbssCOMRAM               bssCOMRAM    000000
__Lcinit                   cinit        000000
__Lclrtext                 clrtext      000000
__Lcomram                  comram       000000
__Lconfig                  config       300000
__Lconst                   const        000000
__LcstackCOMRAM            cstackCOMRAM 000000
__Ldata                    data         000000
__Leeprom_data             eeprom_data  000000
__Lfarbss                  farbss       000000
__Lfardata                 fardata      000000
__Libigdata                ibigdata     000000
__Lidata                   idata        000000
__Lidloc                   idloc        200000
__Lifardata                ifardata     000000
__Linit                    init         000000
__Lintcode                 intcode      000000
__Lintcode_body            intcode_body 000000
__Lintcodelo               intcodelo    000000
__Lintentry                intentry     000000
__Lintret                  intret       000000
__Lintsave_regs            intsave_regs 000000
__Lirdata                  irdata       000000
__Lmediumconst             mediumconst  000000
__LnvFARRAM                nvFARRAM     000000
__Lnvbit                   nvbit        000000
__Lnvrram                  nvrram       000000
__Lparam                   rparam       000000
__Lpowerup                 powerup      000000
__Lram                     ram          000000
__Lramtop                  ramtop       000600
__Lrbit                    rbit         000000
__Lrbss                    rbss         000000
__Lrdata                   rdata        000000
__Lreset_vec               reset_vec    000000
__Lrparam                  rparam       000000
__Lsfr                     sfr          000000
__Lsmallconst              smallconst   000600
__Lspace_0                 (abs)        000000
__Lspace_1                 (abs)        000000
__Lspace_2                 (abs)        000000
__Lstack                   stack        000000
__Lstruct                  struct       000000
__Ltemp                    temp         000000
__Ltext                    text         000000
__Ltext0                   text0        000000
__Ltext1                   text1        000000
__Ltext10                  text10       000000
__Ltext11                  text11       000000
__Ltext12                  text12       000000
__Ltext13                  text13       000000
__Ltext14                  text14       000000
__Ltext15                  text15       000000
__Ltext16                  text16       000000
__Ltext17                  text17       000000
__Ltext18                  text18       000000
__Ltext19                  text19       000000
__Ltext2                   text2        000000
__Ltext20                  text20       000000
__Ltext21                  text21       000000
__Ltext22                  text22       000000
__Ltext23                  text23       000000
__Ltext24                  text24       000000
__Ltext25                  text25       000000
__Ltext26                  text26       000000
__Ltext27                  text27       000000
__Ltext28                  text28       000000
__Ltext29                  text29       000000
__Ltext3                   text3        000000
__Ltext30                  text30       000000
__Ltext31                  text31       000000
__Ltext32                  text32       000000
__Ltext33                  text33       000000
__Ltext34                  text34       000000
__Ltext35                  text35       000000
__Ltext36                  text36       000000
__Ltext37                  text37       000000
__Ltext38                  text38       000000
__Ltext39                  text39       000000
__Ltext4                   text4        000000
__Ltext40                  text40       000000
__Ltext5                   text5        000000
__Ltext6                   text6        000000
__Ltext7                   text7        000000
__Ltext8                   text8        000000
__Ltext9                   text9        000000
__S0                       (abs)        30000E
__S1                       (abs)        0000D6
__S2                       (abs)        000000
___ftdiv                   text39       000A1E
___ftdiv@cntr              cstackCOMRAM 000015
___ftdiv@exp               cstackCOMRAM 000019
___ftdiv@f1                cstackCOMRAM 00000C
___ftdiv@f2                cstackCOMRAM 00000F
___ftdiv@f3                cstackCOMRAM 000016
___ftdiv@sign              cstackCOMRAM 00001A
___ftmul                   text38       00092A
___ftmul@cntr              cstackCOMRAM 000028
___ftmul@exp               cstackCOMRAM 000024
___ftmul@f1                cstackCOMRAM 00001B
___ftmul@f2                cstackCOMRAM 00001E
___ftmul@f3_as_product     cstackCOMRAM 000025
___ftmul@sign              cstackCOMRAM 000029
___ftpack                  text40       000BD2
___ftpack@arg              cstackCOMRAM 000001
___ftpack@exp              cstackCOMRAM 000004
___ftpack@sign             cstackCOMRAM 000005
___inthi_sp                stack        000000
___intlo_sp                stack        000000
___lwdiv                   text17       000DA6
___lwdiv@counter           cstackCOMRAM 000007
___lwdiv@dividend          cstackCOMRAM 000001
___lwdiv@divisor           cstackCOMRAM 000003
___lwdiv@quotient          cstackCOMRAM 000005
___lwmod                   text16       000E4A
___lwmod@counter           cstackCOMRAM 00000C
___lwmod@dividend          cstackCOMRAM 000008
___lwmod@divisor           cstackCOMRAM 00000A
___lwtoft                  text37       000FD0
___lwtoft@c                cstackCOMRAM 000009
___param_bank              (abs)        000000
___rparam_used             (abs)        000001
___sp                      stack        000000
___wmul                    text15       000FAA
___wmul@multiplicand       cstackCOMRAM 000003
___wmul@multiplier         cstackCOMRAM 000001
___wmul@product            cstackCOMRAM 000005
__accesstop                (abs)        000080
__activetblptr             (abs)        000002
__end_of___ftdiv           text39       000B04
__end_of___ftmul           text38       000A1E
__end_of___ftpack          text40       000C80
__end_of___lwdiv           text17       000DF8
__end_of___lwmod           text16       000E8C
__end_of___lwtoft          text37       000FF4
__end_of___wmul            text15       000FD0
__end_of__initialization   cinit        00100A
__end_of_acdVoltRef        text36       0010BC
__end_of_adcAcqTime        text35       001092
__end_of_adcBusy           text29       001162
__end_of_adcClock          text34       00114A
__end_of_adcInit           text30       000F7E
__end_of_adcInterrupt      text33       0010CC
__end_of_adcPortConfig     text32       00113C
__end_of_adcRead           text25       000F10
__end_of_adcResultJust     text31       00112E
__end_of_adcSetChannel     text28       0010A8
__end_of_adcStart          text27       001184
__end_of_adcStop           text26       00117E
__end_of_dpowers           smallconst   00060B
__end_of_isdigit           text14       001032
__end_of_lcdByte           text23       00107A
__end_of_lcdCmd            text22       001120
__end_of_lcdGotoxy         text21       000ECE
__end_of_lcdInit           text20       000D16
__end_of_lcdNible          text24       000DA6
__end_of_lcdPutc           text19       001112
__end_of_lcdPuts           text18       000E4A
__end_of_main              text0        000BD2
__end_of_sprintf           text13       00092A
__end_of_uartBaudrateMode  text12       001104
__end_of_uartBitMode       text11       001062
__end_of_uartBusy          text3        001156
__end_of_uartIntMode       text10       00104A
__end_of_uartOpen          text4        000F4C
__end_of_uartPuts          text1        000FAA
__end_of_uartRxMode        text9        0010F6
__end_of_uartSetBaudrate   text8        001172
__end_of_uartStart         text7        001178
__end_of_uartSyncMode      text6        0010E8
__end_of_uartSynchMode     text5        0010DA
__end_of_uartWrite         text2        00116A
__initialization           cinit        000FF4
__mediumconst              mediumconst  000000
__pbssBANK0                bssBANK0     000080
__pbssCOMRAM               bssCOMRAM    00002C
__pcinit                   cinit        000FF4
__pcstackCOMRAM            cstackCOMRAM 000001
__psmallconst              smallconst   000600
__ptext0                   text0        000B04
__ptext1                   text1        000F7E
__ptext10                  text10       001032
__ptext11                  text11       00104A
__ptext12                  text12       0010F6
__ptext13                  text13       00061A
__ptext14                  text14       001014
__ptext15                  text15       000FAA
__ptext16                  text16       000E4A
__ptext17                  text17       000DA6
__ptext18                  text18       000DF8
__ptext19                  text19       001104
__ptext2                   text2        001162
__ptext20                  text20       000C80
__ptext21                  text21       000E8C
__ptext22                  text22       001112
__ptext23                  text23       001062
__ptext24                  text24       000D16
__ptext25                  text25       000ECE
__ptext26                  text26       001178
__ptext27                  text27       00117E
__ptext28                  text28       001092
__ptext29                  text29       001156
__ptext3                   text3        00114A
__ptext30                  text30       000F4C
__ptext31                  text31       001120
__ptext32                  text32       00112E
__ptext33                  text33       0010BC
__ptext34                  text34       00113C
__ptext35                  text35       00107A
__ptext36                  text36       0010A8
__ptext37                  text37       000FD0
__ptext38                  text38       00092A
__ptext39                  text39       000A1E
__ptext4                   text4        000F10
__ptext40                  text40       000BD2
__ptext5                   text5        0010CC
__ptext6                   text6        0010DA
__ptext7                   text7        001172
__ptext8                   text8        00116A
__ptext9                   text9        0010E8
__ramtop                   ramtop       000600
__size_of___ftdiv          (abs)        000000
__size_of___ftmul          (abs)        000000
__size_of___ftpack         (abs)        000000
__size_of___lwdiv          (abs)        000000
__size_of___lwmod          (abs)        000000
__size_of___lwtoft         (abs)        000000
__size_of___wmul           (abs)        000000
__size_of_acdVoltRef       (abs)        000000
__size_of_adcAcqTime       (abs)        000000
__size_of_adcBusy          (abs)        000000
__size_of_adcClock         (abs)        000000
__size_of_adcInit          (abs)        000000
__size_of_adcInterrupt     (abs)        000000
__size_of_adcPortConfig    (abs)        000000
__size_of_adcRead          (abs)        000000
__size_of_adcResultJust    (abs)        000000
__size_of_adcSetChannel    (abs)        000000
__size_of_adcStart         (abs)        000000
__size_of_adcStop          (abs)        000000
__size_of_isdigit          (abs)        000000
__size_of_lcdByte          (abs)        000000
__size_of_lcdCmd           (abs)        000000
__size_of_lcdGotoxy        (abs)        000000
__size_of_lcdInit          (abs)        000000
__size_of_lcdNible         (abs)        000000
__size_of_lcdPutc          (abs)        000000
__size_of_lcdPuts          (abs)        000000
__size_of_main             (abs)        000000
__size_of_sprintf          (abs)        000000
__size_of_uartBaudrateMode (abs)        000000
__size_of_uartBitMode      (abs)        000000
__size_of_uartBusy         (abs)        000000
__size_of_uartIntMode      (abs)        000000
__size_of_uartOpen         (abs)        000000
__size_of_uartPuts         (abs)        000000
__size_of_uartRxMode       (abs)        000000
__size_of_uartSetBaudrate  (abs)        000000
__size_of_uartStart        (abs)        000000
__size_of_uartSyncMode     (abs)        000000
__size_of_uartSynchMode    (abs)        000000
__size_of_uartWrite        (abs)        000000
__smallconst               smallconst   000600
_acdVoltRef                text36       0010A8
_ad                        bssCOMRAM    00002F
_adcAcqTime                text35       00107A
_adcBusy                   text29       001156
_adcClock                  text34       00113C
_adcInit                   text30       000F4C
_adcInterrupt              text33       0010BC
_adcPortConfig             text32       00112E
_adcRead                   text25       000ECE
_adcResultJust             text31       001120
_adcSetChannel             text28       001092
_adcStart                  text27       00117E
_adcStop                   text26       001178
_buff                      bssBANK0     000080
_dpowers                   smallconst   000601
_isdigit                   text14       001014
_isdigit$926               cstackCOMRAM 000002
_lcdByte                   text23       001062
_lcdCmd                    text22       001112
_lcdGotoxy                 text21       000E8C
_lcdInit                   text20       000C80
_lcdNible                  text24       000D16
_lcdPutc                   text19       001104
_lcdPuts                   text18       000DF8
_main                      text0        000B04
_sprintf                   text13       00061A
_uartBaudrateMode          text12       0010F6
_uartBitMode               text11       00104A
_uartBusy                  text3        00114A
_uartIntMode               text10       001032
_uartOpen                  text4        000F10
_uartPuts                  text1        000F7E
_uartRxMode                text9        0010E8
_uartSetBaudrate           text8        00116A
_uartStart                 text7        001172
_uartSyncMode              text6        0010DA
_uartSynchMode             text5        0010CC
_uartWrite                 text2        001162
_voltage                   bssCOMRAM    00002C
acdVoltRef@vref            cstackCOMRAM 000002
adcAcqTime@tad             cstackCOMRAM 000002
adcClock@clk               cstackCOMRAM 000001
adcInterrupt@config        cstackCOMRAM 000001
adcPortConfig@config       cstackCOMRAM 000001
adcRead@adcResult          cstackCOMRAM 00000B
adcRead@adcResultLSB       cstackCOMRAM 000009
adcRead@adcResultMSB       cstackCOMRAM 000007
adcRead@ch                 cstackCOMRAM 00000D
adcResultJust@just         cstackCOMRAM 000001
adcSetChannel@channel      cstackCOMRAM 000002
end_of_initialization      cinit        00100A
intlevel0                  text         000000
intlevel1                  text         000000
intlevel2                  text         000000
intlevel3                  text         000000
isdigit@c                  cstackCOMRAM 000003
lcdByte@byte               cstackCOMRAM 000004
lcdCmd@cmd                 cstackCOMRAM 000005
lcdGotoxy@col              cstackCOMRAM 000007
lcdGotoxy@row              cstackCOMRAM 000006
lcdNible@nible             cstackCOMRAM 000003
lcdPutc@chr                cstackCOMRAM 000005
lcdPuts@str                cstackCOMRAM 000006
sprintf@ap                 cstackCOMRAM 000017
sprintf@c                  cstackCOMRAM 00001F
sprintf@f                  cstackCOMRAM 00000F
sprintf@flag               cstackCOMRAM 000019
sprintf@prec               cstackCOMRAM 00001E
sprintf@sp                 cstackCOMRAM 00000D
sprintf@val                cstackCOMRAM 00001A
sprintf@width              cstackCOMRAM 00001C
stackhi                    (abs)        0005FF
stacklo                    (abs)        0000D6
start                      init         000000
start_initialization       cinit        000FF4
uartBaudrateMode@mode      cstackCOMRAM 000001
uartBitMode@mode           cstackCOMRAM 000001
uartIntMode@rxMode         cstackCOMRAM 000001
uartIntMode@txMode         cstackCOMRAM 000002
uartPuts@str               cstackCOMRAM 000002
uartRxMode@mode            cstackCOMRAM 000001
uartSetBaudrate@spbrg      cstackCOMRAM 000001
uartSyncMode@mode          cstackCOMRAM 000001
uartSynchMode@mode         cstackCOMRAM 000001
uartWrite@data             cstackCOMRAM 000001


FUNCTION INFORMATION:

 *************** function _main *****************
 Defined at:
		line 13 in file "main.c"
 Parameters:    Size  Location     Type
		None
 Auto vars:     Size  Location     Type
		None
 Return value:  Size  Location     Type
                  1    wreg      void 
 Registers used:
		wreg, fsr0l, fsr0h, fsr2l, fsr2h, status,2, status,0, tblptrl, tblptrh, tblptru, prodl, prodh, cstack
 Tracked objects:
		On entry : 
		On exit  : 
		Unchanged: 
 Data sizes:     COMRAM   BANK0   BANK1   BANK2   BANK3   BANK4   BANK5
      Params:         0       0       0       0       0       0       0
      Locals:         0       0       0       0       0       0       0
      Temps:          2       0       0       0       0       0       0
      Totals:         2       0       0       0       0       0       0
Total ram usage:        2 bytes
 Hardware stack levels required when called:    4
 This function calls:
		___ftdiv
		___ftmul
		___lwtoft
		_adcInit
		_adcRead
		_lcdGotoxy
		_lcdInit
		_lcdPuts
		_sprintf
		_uartOpen
		_uartPuts
 This function is called by:
		Startup code after reset
 This function uses a non-reentrant model


 *************** function _uartPuts *****************
 Defined at:
		line 97 in file "myUart.c"
 Parameters:    Size  Location     Type
  str             2    1[COMRAM] PTR unsigned char 
		 -> buff(86), 
 Auto vars:     Size  Location     Type
		None
 Return value:  Size  Location     Type
                  1    wreg      void 
 Registers used:
		wreg, fsr2l, fsr2h, status,2, status,0, cstack
 Tracked objects:
		On entry : 
		On exit  : 
		Unchanged: 
 Data sizes:     COMRAM   BANK0   BANK1   BANK2   BANK3   BANK4   BANK5
      Params:         2       0       0       0       0       0       0
      Locals:         0       0       0       0       0       0       0
      Temps:          0       0       0       0       0       0       0
      Totals:         2       0       0       0       0       0       0
Total ram usage:        2 bytes
 Hardware stack levels used:    1
 Hardware stack levels required when called:    1
 This function calls:
		_uartBusy
		_uartWrite
 This function is called by:
		_main
 This function uses a non-reentrant model


 *************** function _uartWrite *****************
 Defined at:
		line 78 in file "myUart.c"
 Parameters:    Size  Location     Type
  data            1    wreg     unsigned char 
 Auto vars:     Size  Location     Type
  data            1    0[COMRAM] unsigned char 
 Return value:  Size  Location     Type
                  1    wreg      void 
 Registers used:
		wreg
 Tracked objects:
		On entry : 
		On exit  : 
		Unchanged: 
 Data sizes:     COMRAM   BANK0   BANK1   BANK2   BANK3   BANK4   BANK5
      Params:         0       0       0       0       0       0       0
      Locals:         1       0       0       0       0       0       0
      Temps:          0       0       0       0       0       0       0
      Totals:         1       0       0       0       0       0       0
Total ram usage:        1 bytes
 Hardware stack levels used:    1
 This function calls:
		Nothing
 This function is called by:
		_uartPuts
 This function uses a non-reentrant model


 *************** function _uartBusy *****************
 Defined at:
		line 116 in file "myUart.c"
 Parameters:    Size  Location     Type
		None
 Auto vars:     Size  Location     Type
		None
 Return value:  Size  Location     Type
                  1    wreg      unsigned char 
 Registers used:
		wreg
 Tracked objects:
		On entry : 
		On exit  : 
		Unchanged: 
 Data sizes:     COMRAM   BANK0   BANK1   BANK2   BANK3   BANK4   BANK5
      Params:         0       0       0       0       0       0       0
      Locals:         0       0       0       0       0       0       0
      Temps:          0       0       0       0       0       0       0
      Totals:         0       0       0       0       0       0       0
Total ram usage:        0 bytes
 Hardware stack levels used:    1
 This function calls:
		Nothing
 This function is called by:
		_uartPuts
 This function uses a non-reentrant model


 *************** function _uartOpen *****************
 Defined at:
		line 55 in file "myUart.c"
 Parameters:    Size  Location     Type
		None
 Auto vars:     Size  Location     Type
		None
 Return value:  Size  Location     Type
                  1    wreg      void 
 Registers used:
		wreg, status,2, cstack
 Tracked objects:
		On entry : 
		On exit  : 
		Unchanged: 
 Data sizes:     COMRAM   BANK0   BANK1   BANK2   BANK3   BANK4   BANK5
      Params:         0       0       0       0       0       0       0
      Locals:         0       0       0       0       0       0       0
      Temps:          0       0       0       0       0       0       0
      Totals:         0       0       0       0       0       0       0
Total ram usage:        0 bytes
 Hardware stack levels used:    1
 Hardware stack levels required when called:    1
 This function calls:
		_uartBaudrateMode
		_uartBitMode
		_uartIntMode
		_uartRxMode
		_uartSetBaudrate
		_uartStart
		_uartSyncMode
		_uartSynchMode
 This function is called by:
		_main
 This function uses a non-reentrant model


 *************** function _uartSynchMode *****************
 Defined at:
		line 38 in file "myUart.c"
 Parameters:    Size  Location     Type
  mode            1    wreg     unsigned char 
 Auto vars:     Size  Location     Type
  mode            1    0[COMRAM] unsigned char 
 Return value:  Size  Location     Type
                  1    wreg      void 
 Registers used:
		wreg
 Tracked objects:
		On entry : 
		On exit  : 
		Unchanged: 
 Data sizes:     COMRAM   BANK0   BANK1   BANK2   BANK3   BANK4   BANK5
      Params:         0       0       0       0       0       0       0
      Locals:         1       0       0       0       0       0       0
      Temps:          0       0       0       0       0       0       0
      Totals:         1       0       0       0       0       0       0
Total ram usage:        1 bytes
 Hardware stack levels used:    1
 This function calls:
		Nothing
 This function is called by:
		_uartOpen
 This function uses a non-reentrant model


 *************** function _uartSyncMode *****************
 Defined at:
		line 27 in file "myUart.c"
 Parameters:    Size  Location     Type
  mode            1    wreg     unsigned char 
 Auto vars:     Size  Location     Type
  mode            1    0[COMRAM] unsigned char 
 Return value:  Size  Location     Type
                  1    wreg      void 
 Registers used:
		wreg
 Tracked objects:
		On entry : 
		On exit  : 
		Unchanged: 
 Data sizes:     COMRAM   BANK0   BANK1   BANK2   BANK3   BANK4   BANK5
      Params:         0       0       0       0       0       0       0
      Locals:         1       0       0       0       0       0       0
      Temps:          0       0       0       0       0       0       0
      Totals:         1       0       0       0       0       0       0
Total ram usage:        1 bytes
 Hardware stack levels used:    1
 This function calls:
		Nothing
 This function is called by:
		_uartOpen
 This function uses a non-reentrant model


 *************** function _uartStart *****************
 Defined at:
		line 43 in file "myUart.c"
 Parameters:    Size  Location     Type
		None
 Auto vars:     Size  Location     Type
		None
 Return value:  Size  Location     Type
                  1    wreg      void 
 Registers used:
		None
 Tracked objects:
		On entry : 
		On exit  : 
		Unchanged: 
 Data sizes:     COMRAM   BANK0   BANK1   BANK2   BANK3   BANK4   BANK5
      Params:         0       0       0       0       0       0       0
      Locals:         0       0       0       0       0       0       0
      Temps:          0       0       0       0       0       0       0
      Totals:         0       0       0       0       0       0       0
Total ram usage:        0 bytes
 Hardware stack levels used:    1
 This function calls:
		Nothing
 This function is called by:
		_uartOpen
 This function uses a non-reentrant model


 *************** function _uartSetBaudrate *****************
 Defined at:
		line 18 in file "myUart.c"
 Parameters:    Size  Location     Type
  spbrg           1    wreg     unsigned char 
 Auto vars:     Size  Location     Type
  spbrg           1    0[COMRAM] unsigned char 
 Return value:  Size  Location     Type
                  1    wreg      void 
 Registers used:
		wreg
 Tracked objects:
		On entry : 
		On exit  : 
		Unchanged: 
 Data sizes:     COMRAM   BANK0   BANK1   BANK2   BANK3   BANK4   BANK5
      Params:         0       0       0       0       0       0       0
      Locals:         1       0       0       0       0       0       0
      Temps:          0       0       0       0       0       0       0
      Totals:         1       0       0       0       0       0       0
Total ram usage:        1 bytes
 Hardware stack levels used:    1
 This function calls:
		Nothing
 This function is called by:
		_uartOpen
 This function uses a non-reentrant model


 *************** function _uartRxMode *****************
 Defined at:
		line 22 in file "myUart.c"
 Parameters:    Size  Location     Type
  mode            1    wreg     unsigned char 
 Auto vars:     Size  Location     Type
  mode            1    0[COMRAM] unsigned char 
 Return value:  Size  Location     Type
                  1    wreg      void 
 Registers used:
		wreg
 Tracked objects:
		On entry : 
		On exit  : 
		Unchanged: 
 Data sizes:     COMRAM   BANK0   BANK1   BANK2   BANK3   BANK4   BANK5
      Params:         0       0       0       0       0       0       0
      Locals:         1       0       0       0       0       0       0
      Temps:          0       0       0       0       0       0       0
      Totals:         1       0       0       0       0       0       0
Total ram usage:        1 bytes
 Hardware stack levels used:    1
 This function calls:
		Nothing
 This function is called by:
		_uartOpen
 This function uses a non-reentrant model


 *************** function _uartIntMode *****************
 Defined at:
		line 7 in file "myUart.c"
 Parameters:    Size  Location     Type
  txMode          1    wreg     unsigned char 
  rxMode          1    0[COMRAM] unsigned char 
 Auto vars:     Size  Location     Type
  txMode          1    1[COMRAM] unsigned char 
 Return value:  Size  Location     Type
                  1    wreg      void 
 Registers used:
		wreg
 Tracked objects:
		On entry : 
		On exit  : 
		Unchanged: 
 Data sizes:     COMRAM   BANK0   BANK1   BANK2   BANK3   BANK4   BANK5
      Params:         1       0       0       0       0       0       0
      Locals:         1       0       0       0       0       0       0
      Temps:          0       0       0       0       0       0       0
      Totals:         2       0       0       0       0       0       0
Total ram usage:        2 bytes
 Hardware stack levels used:    1
 This function calls:
		Nothing
 This function is called by:
		_uartOpen
 This function uses a non-reentrant model


 *************** function _uartBitMode *****************
 Defined at:
		line 32 in file "myUart.c"
 Parameters:    Size  Location     Type
  mode            1    wreg     unsigned char 
 Auto vars:     Size  Location     Type
  mode            1    0[COMRAM] unsigned char 
 Return value:  Size  Location     Type
                  1    wreg      void 
 Registers used:
		wreg
 Tracked objects:
		On entry : 
		On exit  : 
		Unchanged: 
 Data sizes:     COMRAM   BANK0   BANK1   BANK2   BANK3   BANK4   BANK5
      Params:         0       0       0       0       0       0       0
      Locals:         1       0       0       0       0       0       0
      Temps:          0       0       0       0       0       0       0
      Totals:         1       0       0       0       0       0       0
Total ram usage:        1 bytes
 Hardware stack levels used:    1
 This function calls:
		Nothing
 This function is called by:
		_uartOpen
 This function uses a non-reentrant model


 *************** function _uartBaudrateMode *****************
 Defined at:
		line 13 in file "myUart.c"
 Parameters:    Size  Location     Type
  mode            1    wreg     unsigned char 
 Auto vars:     Size  Location     Type
  mode            1    0[COMRAM] unsigned char 
 Return value:  Size  Location     Type
                  1    wreg      void 
 Registers used:
		wreg
 Tracked objects:
		On entry : 
		On exit  : 
		Unchanged: 
 Data sizes:     COMRAM   BANK0   BANK1   BANK2   BANK3   BANK4   BANK5
      Params:         0       0       0       0       0       0       0
      Locals:         1       0       0       0       0       0       0
      Temps:          0       0       0       0       0       0       0
      Totals:         1       0       0       0       0       0       0
Total ram usage:        1 bytes
 Hardware stack levels used:    1
 This function calls:
		Nothing
 This function is called by:
		_uartOpen
 This function uses a non-reentrant model


 *************** function _sprintf *****************
 Defined at:
		line 492 in file "C:\Program Files (x86)\Microchip\xc8\v1.41\sources\common\doprnt.c"
 Parameters:    Size  Location     Type
  sp              2   12[COMRAM] PTR unsigned char 
		 -> buff(86), 
  f               2   14[COMRAM] PTR const unsigned char 
		 -> STR_2(6), 
 Auto vars:     Size  Location     Type
  tmpval          4    0        struct .
  cp              3    0        PTR const unsigned char 
  width           2   27[COMRAM] int 
  val             2   25[COMRAM] unsigned int 
  ap              2   22[COMRAM] PTR void [1]
		 -> ?_sprintf(2), 
  len             2    0        unsigned int 
  c               1   30[COMRAM] char 
  prec            1   29[COMRAM] char 
  flag            1   24[COMRAM] unsigned char 
 Return value:  Size  Location     Type
                  2   12[COMRAM] int 
 Registers used:
		wreg, fsr2l, fsr2h, status,2, status,0, tblptrl, tblptrh, tblptru, prodl, prodh, cstack
 Tracked objects:
		On entry : 
		On exit  : 
		Unchanged: 
 Data sizes:     COMRAM   BANK0   BANK1   BANK2   BANK3   BANK4   BANK5
      Params:         6       0       0       0       0       0       0
      Locals:         9       0       0       0       0       0       0
      Temps:          4       0       0       0       0       0       0
      Totals:        19       0       0       0       0       0       0
Total ram usage:       19 bytes
 Hardware stack levels used:    1
 Hardware stack levels required when called:    1
 This function calls:
		___lwdiv
		___lwmod
		___wmul
		_isdigit
 This function is called by:
		_main
 This function uses a non-reentrant model


 *************** function _isdigit *****************
 Defined at:
		line 8 in file "C:\Program Files (x86)\Microchip\xc8\v1.41\sources\common\isdigit.c"
 Parameters:    Size  Location     Type
  c               1    wreg     unsigned char 
 Auto vars:     Size  Location     Type
  c               1    2[COMRAM] unsigned char 
 Return value:  Size  Location     Type
		None               void
 Registers used:
		wreg, status,2, status,0
 Tracked objects:
		On entry : 
		On exit  : 
		Unchanged: 
 Data sizes:     COMRAM   BANK0   BANK1   BANK2   BANK3   BANK4   BANK5
      Params:         0       0       0       0       0       0       0
      Locals:         2       0       0       0       0       0       0
      Temps:          1       0       0       0       0       0       0
      Totals:         3       0       0       0       0       0       0
Total ram usage:        3 bytes
 Hardware stack levels used:    1
 This function calls:
		Nothing
 This function is called by:
		_sprintf
 This function uses a non-reentrant model


 *************** function ___wmul *****************
 Defined at:
		line 15 in file "C:\Program Files (x86)\Microchip\xc8\v1.41\sources\common\Umul16.c"
 Parameters:    Size  Location     Type
  multiplier      2    0[COMRAM] unsigned int 
  multiplicand    2    2[COMRAM] unsigned int 
 Auto vars:     Size  Location     Type
  product         2    4[COMRAM] unsigned int 
 Return value:  Size  Location     Type
                  2    0[COMRAM] unsigned int 
 Registers used:
		wreg, status,2, status,0, prodl, prodh
 Tracked objects:
		On entry : 
		On exit  : 
		Unchanged: 
 Data sizes:     COMRAM   BANK0   BANK1   BANK2   BANK3   BANK4   BANK5
      Params:         4       0       0       0       0       0       0
      Locals:         2       0       0       0       0       0       0
      Temps:          0       0       0       0       0       0       0
      Totals:         6       0       0       0       0       0       0
Total ram usage:        6 bytes
 Hardware stack levels used:    1
 This function calls:
		Nothing
 This function is called by:
		_sprintf
 This function uses a non-reentrant model


 *************** function ___lwmod *****************
 Defined at:
		line 8 in file "C:\Program Files (x86)\Microchip\xc8\v1.41\sources\common\lwmod.c"
 Parameters:    Size  Location     Type
  dividend        2    7[COMRAM] unsigned int 
  divisor         2    9[COMRAM] unsigned int 
 Auto vars:     Size  Location     Type
  counter         1   11[COMRAM] unsigned char 
 Return value:  Size  Location     Type
                  2    7[COMRAM] unsigned int 
 Registers used:
		wreg, status,2, status,0
 Tracked objects:
		On entry : 
		On exit  : 
		Unchanged: 
 Data sizes:     COMRAM   BANK0   BANK1   BANK2   BANK3   BANK4   BANK5
      Params:         4       0       0       0       0       0       0
      Locals:         1       0       0       0       0       0       0
      Temps:          0       0       0       0       0       0       0
      Totals:         5       0       0       0       0       0       0
Total ram usage:        5 bytes
 Hardware stack levels used:    1
 This function calls:
		Nothing
 This function is called by:
		_sprintf
 This function uses a non-reentrant model


 *************** function ___lwdiv *****************
 Defined at:
		line 8 in file "C:\Program Files (x86)\Microchip\xc8\v1.41\sources\common\lwdiv.c"
 Parameters:    Size  Location     Type
  dividend        2    0[COMRAM] unsigned int 
  divisor         2    2[COMRAM] unsigned int 
 Auto vars:     Size  Location     Type
  quotient        2    4[COMRAM] unsigned int 
  counter         1    6[COMRAM] unsigned char 
 Return value:  Size  Location     Type
                  2    0[COMRAM] unsigned int 
 Registers used:
		wreg, status,2, status,0
 Tracked objects:
		On entry : 
		On exit  : 
		Unchanged: 
 Data sizes:     COMRAM   BANK0   BANK1   BANK2   BANK3   BANK4   BANK5
      Params:         4       0       0       0       0       0       0
      Locals:         3       0       0       0       0       0       0
      Temps:          0       0       0       0       0       0       0
      Totals:         7       0       0       0       0       0       0
Total ram usage:        7 bytes
 Hardware stack levels used:    1
 This function calls:
		Nothing
 This function is called by:
		_sprintf
 This function uses a non-reentrant model


 *************** function _lcdPuts *****************
 Defined at:
		line 44 in file "myLCD.c"
 Parameters:    Size  Location     Type
  str             2    5[COMRAM] PTR unsigned char 
		 -> buff(86), STR_1(7), 
 Auto vars:     Size  Location     Type
		None
 Return value:  Size  Location     Type
                  1    wreg      void 
 Registers used:
		wreg, fsr0l, fsr0h, status,2, status,0, tblptrl, tblptrh, tblptru, cstack
 Tracked objects:
		On entry : 
		On exit  : 
		Unchanged: 
 Data sizes:     COMRAM   BANK0   BANK1   BANK2   BANK3   BANK4   BANK5
      Params:         2       0       0       0       0       0       0
      Locals:         0       0       0       0       0       0       0
      Temps:          0       0       0       0       0       0       0
      Totals:         2       0       0       0       0       0       0
Total ram usage:        2 bytes
 Hardware stack levels used:    1
 Hardware stack levels required when called:    3
 This function calls:
		_lcdPutc
 This function is called by:
		_main
 This function uses a non-reentrant model


 *************** function _lcdPutc *****************
 Defined at:
		line 36 in file "myLCD.c"
 Parameters:    Size  Location     Type
  chr             1    wreg     unsigned char 
 Auto vars:     Size  Location     Type
  chr             1    4[COMRAM] unsigned char 
 Return value:  Size  Location     Type
                  1    wreg      void 
 Registers used:
		wreg, status,2, status,0, cstack
 Tracked objects:
		On entry : 
		On exit  : 
		Unchanged: 
 Data sizes:     COMRAM   BANK0   BANK1   BANK2   BANK3   BANK4   BANK5
      Params:         0       0       0       0       0       0       0
      Locals:         1       0       0       0       0       0       0
      Temps:          0       0       0       0       0       0       0
      Totals:         1       0       0       0       0       0       0
Total ram usage:        1 bytes
 Hardware stack levels used:    1
 Hardware stack levels required when called:    2
 This function calls:
		_lcdByte
 This function is called by:
		_lcdPuts
 This function uses a non-reentrant model


 *************** function _lcdInit *****************
 Defined at:
		line 63 in file "myLCD.c"
 Parameters:    Size  Location     Type
		None
 Auto vars:     Size  Location     Type
		None
 Return value:  Size  Location     Type
                  1    wreg      void 
 Registers used:
		wreg, status,2, status,0, cstack
 Tracked objects:
		On entry : 
		On exit  : 
		Unchanged: 
 Data sizes:     COMRAM   BANK0   BANK1   BANK2   BANK3   BANK4   BANK5
      Params:         0       0       0       0       0       0       0
      Locals:         0       0       0       0       0       0       0
      Temps:          1       0       0       0       0       0       0
      Totals:         1       0       0       0       0       0       0
Total ram usage:        1 bytes
 Hardware stack levels used:    1
 Hardware stack levels required when called:    3
 This function calls:
		_lcdCmd
		_lcdNible
 This function is called by:
		_main
 This function uses a non-reentrant model


 *************** function _lcdGotoxy *****************
 Defined at:
		line 54 in file "myLCD.c"
 Parameters:    Size  Location     Type
  col             1    wreg     unsigned char 
  row             1    5[COMRAM] unsigned char 
 Auto vars:     Size  Location     Type
  col             1    6[COMRAM] unsigned char 
 Return value:  Size  Location     Type
                  1    wreg      void 
 Registers used:
		wreg, status,2, status,0, cstack
 Tracked objects:
		On entry : 
		On exit  : 
		Unchanged: 
 Data sizes:     COMRAM   BANK0   BANK1   BANK2   BANK3   BANK4   BANK5
      Params:         1       0       0       0       0       0       0
      Locals:         1       0       0       0       0       0       0
      Temps:          0       0       0       0       0       0       0
      Totals:         2       0       0       0       0       0       0
Total ram usage:        2 bytes
 Hardware stack levels used:    1
 Hardware stack levels required when called:    3
 This function calls:
		_lcdCmd
 This function is called by:
		_main
 This function uses a non-reentrant model


 *************** function _lcdCmd *****************
 Defined at:
		line 28 in file "myLCD.c"
 Parameters:    Size  Location     Type
  cmd             1    wreg     unsigned char 
 Auto vars:     Size  Location     Type
  cmd             1    4[COMRAM] unsigned char 
 Return value:  Size  Location     Type
                  1    wreg      void 
 Registers used:
		wreg, status,2, status,0, cstack
 Tracked objects:
		On entry : 
		On exit  : 
		Unchanged: 
 Data sizes:     COMRAM   BANK0   BANK1   BANK2   BANK3   BANK4   BANK5
      Params:         0       0       0       0       0       0       0
      Locals:         1       0       0       0       0       0       0
      Temps:          0       0       0       0       0       0       0
      Totals:         1       0       0       0       0       0       0
Total ram usage:        1 bytes
 Hardware stack levels used:    1
 Hardware stack levels required when called:    2
 This function calls:
		_lcdByte
 This function is called by:
		_lcdGotoxy
		_lcdInit
 This function uses a non-reentrant model


 *************** function _lcdByte *****************
 Defined at:
		line 20 in file "myLCD.c"
 Parameters:    Size  Location     Type
  byte            1    wreg     unsigned char 
 Auto vars:     Size  Location     Type
  byte            1    3[COMRAM] unsigned char 
 Return value:  Size  Location     Type
                  1    wreg      void 
 Registers used:
		wreg, status,2, status,0, cstack
 Tracked objects:
		On entry : 
		On exit  : 
		Unchanged: 
 Data sizes:     COMRAM   BANK0   BANK1   BANK2   BANK3   BANK4   BANK5
      Params:         0       0       0       0       0       0       0
      Locals:         1       0       0       0       0       0       0
      Temps:          0       0       0       0       0       0       0
      Totals:         1       0       0       0       0       0       0
Total ram usage:        1 bytes
 Hardware stack levels used:    1
 Hardware stack levels required when called:    1
 This function calls:
		_lcdNible
 This function is called by:
		_lcdCmd
		_lcdPutc
 This function uses a non-reentrant model


 *************** function _lcdNible *****************
 Defined at:
		line 6 in file "myLCD.c"
 Parameters:    Size  Location     Type
  nible           1    wreg     unsigned char 
 Auto vars:     Size  Location     Type
  nible           1    2[COMRAM] unsigned char 
 Return value:  Size  Location     Type
                  1    wreg      void 
 Registers used:
		wreg, status,2, status,0
 Tracked objects:
		On entry : 
		On exit  : 
		Unchanged: 
 Data sizes:     COMRAM   BANK0   BANK1   BANK2   BANK3   BANK4   BANK5
      Params:         0       0       0       0       0       0       0
      Locals:         1       0       0       0       0       0       0
      Temps:          2       0       0       0       0       0       0
      Totals:         3       0       0       0       0       0       0
Total ram usage:        3 bytes
 Hardware stack levels used:    1
 This function calls:
		Nothing
 This function is called by:
		_lcdByte
		_lcdInit
 This function uses a non-reentrant model


 *************** function _adcRead *****************
 Defined at:
		line 66 in file "myADC.c"
 Parameters:    Size  Location     Type
  ch              1    wreg     unsigned char 
 Auto vars:     Size  Location     Type
  ch              1   12[COMRAM] unsigned char 
  adcResult       2   10[COMRAM] unsigned int 
  adcResultLSB    2    8[COMRAM] unsigned int 
  adcResultMSB    2    6[COMRAM] unsigned int 
 Return value:  Size  Location     Type
                  2    2[COMRAM] unsigned int 
 Registers used:
		wreg, status,2, status,0, cstack
 Tracked objects:
		On entry : 
		On exit  : 
		Unchanged: 
 Data sizes:     COMRAM   BANK0   BANK1   BANK2   BANK3   BANK4   BANK5
      Params:         2       0       0       0       0       0       0
      Locals:         7       0       0       0       0       0       0
      Temps:          2       0       0       0       0       0       0
      Totals:        11       0       0       0       0       0       0
Total ram usage:       11 bytes
 Hardware stack levels used:    1
 Hardware stack levels required when called:    1
 This function calls:
		_adcBusy
		_adcSetChannel
		_adcStart
		_adcStop
 This function is called by:
		_main
 This function uses a non-reentrant model


 *************** function _adcStop *****************
 Defined at:
		line 56 in file "myADC.c"
 Parameters:    Size  Location     Type
		None
 Auto vars:     Size  Location     Type
		None
 Return value:  Size  Location     Type
                  1    wreg      void 
 Registers used:
		None
 Tracked objects:
		On entry : 
		On exit  : 
		Unchanged: 
 Data sizes:     COMRAM   BANK0   BANK1   BANK2   BANK3   BANK4   BANK5
      Params:         0       0       0       0       0       0       0
      Locals:         0       0       0       0       0       0       0
      Temps:          0       0       0       0       0       0       0
      Totals:         0       0       0       0       0       0       0
Total ram usage:        0 bytes
 Hardware stack levels used:    1
 This function calls:
		Nothing
 This function is called by:
		_adcRead
 This function uses a non-reentrant model


 *************** function _adcStart *****************
 Defined at:
		line 50 in file "myADC.c"
 Parameters:    Size  Location     Type
		None
 Auto vars:     Size  Location     Type
		None
 Return value:  Size  Location     Type
                  1    wreg      void 
 Registers used:
		None
 Tracked objects:
		On entry : 
		On exit  : 
		Unchanged: 
 Data sizes:     COMRAM   BANK0   BANK1   BANK2   BANK3   BANK4   BANK5
      Params:         0       0       0       0       0       0       0
      Locals:         0       0       0       0       0       0       0
      Temps:          0       0       0       0       0       0       0
      Totals:         0       0       0       0       0       0       0
Total ram usage:        0 bytes
 Hardware stack levels used:    1
 This function calls:
		Nothing
 This function is called by:
		_adcRead
 This function uses a non-reentrant model


 *************** function _adcSetChannel *****************
 Defined at:
		line 62 in file "myADC.c"
 Parameters:    Size  Location     Type
  channel         1    wreg     unsigned char 
 Auto vars:     Size  Location     Type
  channel         1    1[COMRAM] unsigned char 
 Return value:  Size  Location     Type
                  1    wreg      void 
 Registers used:
		wreg, status,2, status,0
 Tracked objects:
		On entry : 
		On exit  : 
		Unchanged: 
 Data sizes:     COMRAM   BANK0   BANK1   BANK2   BANK3   BANK4   BANK5
      Params:         0       0       0       0       0       0       0
      Locals:         1       0       0       0       0       0       0
      Temps:          1       0       0       0       0       0       0
      Totals:         2       0       0       0       0       0       0
Total ram usage:        2 bytes
 Hardware stack levels used:    1
 This function calls:
		Nothing
 This function is called by:
		_adcRead
 This function uses a non-reentrant model


 *************** function _adcBusy *****************
 Defined at:
		line 85 in file "myADC.c"
 Parameters:    Size  Location     Type
		None
 Auto vars:     Size  Location     Type
		None
 Return value:  Size  Location     Type
                  1    wreg      unsigned char 
 Registers used:
		wreg
 Tracked objects:
		On entry : 
		On exit  : 
		Unchanged: 
 Data sizes:     COMRAM   BANK0   BANK1   BANK2   BANK3   BANK4   BANK5
      Params:         0       0       0       0       0       0       0
      Locals:         0       0       0       0       0       0       0
      Temps:          0       0       0       0       0       0       0
      Totals:         0       0       0       0       0       0       0
Total ram usage:        0 bytes
 Hardware stack levels used:    1
 This function calls:
		Nothing
 This function is called by:
		_adcRead
 This function uses a non-reentrant model


 *************** function _adcInit *****************
 Defined at:
		line 35 in file "myADC.c"
 Parameters:    Size  Location     Type
		None
 Auto vars:     Size  Location     Type
		None
 Return value:  Size  Location     Type
                  1    wreg      void 
 Registers used:
		wreg, status,2, status,0, cstack
 Tracked objects:
		On entry : 
		On exit  : 
		Unchanged: 
 Data sizes:     COMRAM   BANK0   BANK1   BANK2   BANK3   BANK4   BANK5
      Params:         0       0       0       0       0       0       0
      Locals:         0       0       0       0       0       0       0
      Temps:          0       0       0       0       0       0       0
      Totals:         0       0       0       0       0       0       0
Total ram usage:        0 bytes
 Hardware stack levels used:    1
 Hardware stack levels required when called:    1
 This function calls:
		_acdVoltRef
		_adcAcqTime
		_adcClock
		_adcInterrupt
		_adcPortConfig
		_adcResultJust
 This function is called by:
		_main
 This function uses a non-reentrant model


 *************** function _adcResultJust *****************
 Defined at:
		line 14 in file "myADC.c"
 Parameters:    Size  Location     Type
  just            1    wreg     unsigned char 
 Auto vars:     Size  Location     Type
  just            1    0[COMRAM] unsigned char 
 Return value:  Size  Location     Type
                  1    wreg      void 
 Registers used:
		wreg
 Tracked objects:
		On entry : 
		On exit  : 
		Unchanged: 
 Data sizes:     COMRAM   BANK0   BANK1   BANK2   BANK3   BANK4   BANK5
      Params:         0       0       0       0       0       0       0
      Locals:         1       0       0       0       0       0       0
      Temps:          0       0       0       0       0       0       0
      Totals:         1       0       0       0       0       0       0
Total ram usage:        1 bytes
 Hardware stack levels used:    1
 This function calls:
		Nothing
 This function is called by:
		_adcInit
 This function uses a non-reentrant model


 *************** function _adcPortConfig *****************
 Defined at:
		line 30 in file "myADC.c"
 Parameters:    Size  Location     Type
  config          1    wreg     unsigned char 
 Auto vars:     Size  Location     Type
  config          1    0[COMRAM] unsigned char 
 Return value:  Size  Location     Type
                  1    wreg      void 
 Registers used:
		wreg, status,2, status,0
 Tracked objects:
		On entry : 
		On exit  : 
		Unchanged: 
 Data sizes:     COMRAM   BANK0   BANK1   BANK2   BANK3   BANK4   BANK5
      Params:         0       0       0       0       0       0       0
      Locals:         1       0       0       0       0       0       0
      Temps:          0       0       0       0       0       0       0
      Totals:         1       0       0       0       0       0       0
Total ram usage:        1 bytes
 Hardware stack levels used:    1
 This function calls:
		Nothing
 This function is called by:
		_adcInit
 This function uses a non-reentrant model


 *************** function _adcInterrupt *****************
 Defined at:
		line 24 in file "myADC.c"
 Parameters:    Size  Location     Type
  config          1    wreg     unsigned char 
 Auto vars:     Size  Location     Type
  config          1    0[COMRAM] unsigned char 
 Return value:  Size  Location     Type
                  1    wreg      void 
 Registers used:
		wreg
 Tracked objects:
		On entry : 
		On exit  : 
		Unchanged: 
 Data sizes:     COMRAM   BANK0   BANK1   BANK2   BANK3   BANK4   BANK5
      Params:         0       0       0       0       0       0       0
      Locals:         1       0       0       0       0       0       0
      Temps:          0       0       0       0       0       0       0
      Totals:         1       0       0       0       0       0       0
Total ram usage:        1 bytes
 Hardware stack levels used:    1
 This function calls:
		Nothing
 This function is called by:
		_adcInit
 This function uses a non-reentrant model


 *************** function _adcClock *****************
 Defined at:
		line 4 in file "myADC.c"
 Parameters:    Size  Location     Type
  clk             1    wreg     unsigned char 
 Auto vars:     Size  Location     Type
  clk             1    0[COMRAM] unsigned char 
 Return value:  Size  Location     Type
                  1    wreg      void 
 Registers used:
		wreg, status,2, status,0
 Tracked objects:
		On entry : 
		On exit  : 
		Unchanged: 
 Data sizes:     COMRAM   BANK0   BANK1   BANK2   BANK3   BANK4   BANK5
      Params:         0       0       0       0       0       0       0
      Locals:         1       0       0       0       0       0       0
      Temps:          0       0       0       0       0       0       0
      Totals:         1       0       0       0       0       0       0
Total ram usage:        1 bytes
 Hardware stack levels used:    1
 This function calls:
		Nothing
 This function is called by:
		_adcInit
 This function uses a non-reentrant model


 *************** function _adcAcqTime *****************
 Defined at:
		line 9 in file "myADC.c"
 Parameters:    Size  Location     Type
  tad             1    wreg     unsigned char 
 Auto vars:     Size  Location     Type
  tad             1    1[COMRAM] unsigned char 
 Return value:  Size  Location     Type
                  1    wreg      void 
 Registers used:
		wreg, status,2, status,0
 Tracked objects:
		On entry : 
		On exit  : 
		Unchanged: 
 Data sizes:     COMRAM   BANK0   BANK1   BANK2   BANK3   BANK4   BANK5
      Params:         0       0       0       0       0       0       0
      Locals:         1       0       0       0       0       0       0
      Temps:          1       0       0       0       0       0       0
      Totals:         2       0       0       0       0       0       0
Total ram usage:        2 bytes
 Hardware stack levels used:    1
 This function calls:
		Nothing
 This function is called by:
		_adcInit
 This function uses a non-reentrant model


 *************** function _acdVoltRef *****************
 Defined at:
		line 19 in file "myADC.c"
 Parameters:    Size  Location     Type
  vref            1    wreg     unsigned char 
 Auto vars:     Size  Location     Type
  vref            1    1[COMRAM] unsigned char 
 Return value:  Size  Location     Type
                  1    wreg      void 
 Registers used:
		wreg, status,2, status,0
 Tracked objects:
		On entry : 
		On exit  : 
		Unchanged: 
 Data sizes:     COMRAM   BANK0   BANK1   BANK2   BANK3   BANK4   BANK5
      Params:         0       0       0       0       0       0       0
      Locals:         1       0       0       0       0       0       0
      Temps:          1       0       0       0       0       0       0
      Totals:         2       0       0       0       0       0       0
Total ram usage:        2 bytes
 Hardware stack levels used:    1
 This function calls:
		Nothing
 This function is called by:
		_adcInit
 This function uses a non-reentrant model


 *************** function ___lwtoft *****************
 Defined at:
		line 28 in file "C:\Program Files (x86)\Microchip\xc8\v1.41\sources\common\lwtoft.c"
 Parameters:    Size  Location     Type
  c               2    8[COMRAM] unsigned int 
 Auto vars:     Size  Location     Type
		None
 Return value:  Size  Location     Type
                  3    8[COMRAM] float 
 Registers used:
		wreg, status,2, status,0, cstack
 Tracked objects:
		On entry : 
		On exit  : 
		Unchanged: 
 Data sizes:     COMRAM   BANK0   BANK1   BANK2   BANK3   BANK4   BANK5
      Params:         3       0       0       0       0       0       0
      Locals:         0       0       0       0       0       0       0
      Temps:          0       0       0       0       0       0       0
      Totals:         3       0       0       0       0       0       0
Total ram usage:        3 bytes
 Hardware stack levels used:    1
 Hardware stack levels required when called:    1
 This function calls:
		___ftpack
 This function is called by:
		_main
 This function uses a non-reentrant model


 *************** function ___ftmul *****************
 Defined at:
		line 62 in file "C:\Program Files (x86)\Microchip\xc8\v1.41\sources\common\ftmul.c"
 Parameters:    Size  Location     Type
  f1              3   26[COMRAM] float 
  f2              3   29[COMRAM] float 
 Auto vars:     Size  Location     Type
  f3_as_produc    3   36[COMRAM] unsigned um
  sign            1   40[COMRAM] unsigned char 
  cntr            1   39[COMRAM] unsigned char 
  exp             1   35[COMRAM] unsigned char 
 Return value:  Size  Location     Type
                  3   26[COMRAM] float 
 Registers used:
		wreg, status,2, status,0, cstack
 Tracked objects:
		On entry : 
		On exit  : 
		Unchanged: 
 Data sizes:     COMRAM   BANK0   BANK1   BANK2   BANK3   BANK4   BANK5
      Params:         6       0       0       0       0       0       0
      Locals:         6       0       0       0       0       0       0
      Temps:          3       0       0       0       0       0       0
      Totals:        15       0       0       0       0       0       0
Total ram usage:       15 bytes
 Hardware stack levels used:    1
 Hardware stack levels required when called:    1
 This function calls:
		___ftpack
 This function is called by:
		_main
 This function uses a non-reentrant model


 *************** function ___ftdiv *****************
 Defined at:
		line 54 in file "C:\Program Files (x86)\Microchip\xc8\v1.41\sources\common\ftdiv.c"
 Parameters:    Size  Location     Type
  f1              3   11[COMRAM] float 
  f2              3   14[COMRAM] float 
 Auto vars:     Size  Location     Type
  f3              3   21[COMRAM] float 
  sign            1   25[COMRAM] unsigned char 
  exp             1   24[COMRAM] unsigned char 
  cntr            1   20[COMRAM] unsigned char 
 Return value:  Size  Location     Type
                  3   11[COMRAM] float 
 Registers used:
		wreg, status,2, status,0, cstack
 Tracked objects:
		On entry : 
		On exit  : 
		Unchanged: 
 Data sizes:     COMRAM   BANK0   BANK1   BANK2   BANK3   BANK4   BANK5
      Params:         6       0       0       0       0       0       0
      Locals:         6       0       0       0       0       0       0
      Temps:          3       0       0       0       0       0       0
      Totals:        15       0       0       0       0       0       0
Total ram usage:       15 bytes
 Hardware stack levels used:    1
 Hardware stack levels required when called:    1
 This function calls:
		___ftpack
 This function is called by:
		_main
 This function uses a non-reentrant model


 *************** function ___ftpack *****************
 Defined at:
		line 62 in file "C:\Program Files (x86)\Microchip\xc8\v1.41\sources\common\float.c"
 Parameters:    Size  Location     Type
  arg             3    0[COMRAM] unsigned um
  exp             1    3[COMRAM] unsigned char 
  sign            1    4[COMRAM] unsigned char 
 Auto vars:     Size  Location     Type
		None
 Return value:  Size  Location     Type
                  3    0[COMRAM] float 
 Registers used:
		wreg, status,2, status,0
 Tracked objects:
		On entry : 
		On exit  : 
		Unchanged: 
 Data sizes:     COMRAM   BANK0   BANK1   BANK2   BANK3   BANK4   BANK5
      Params:         5       0       0       0       0       0       0
      Locals:         0       0       0       0       0       0       0
      Temps:          3       0       0       0       0       0       0
      Totals:         8       0       0       0       0       0       0
Total ram usage:        8 bytes
 Hardware stack levels used:    1
 This function calls:
		Nothing
 This function is called by:
		___ftdiv
		___ftmul
		___lwtoft
 This function uses a non-reentrant model



MODULE INFORMATION

Module		Function		Class		Link	Load	Size
C:\Program Files (x86)\Microchip\xc8\v1.41\sources\common\lwdiv.c
		___lwdiv       		CODE           	0DA6	0000	83

C:\Program Files (x86)\Microchip\xc8\v1.41\sources\common\lwdiv.c estimated size: 83

C:\Program Files (x86)\Microchip\xc8\v1.41\sources\common\doprnt.c
		_sprintf       		CODE           	061A	0000	785

C:\Program Files (x86)\Microchip\xc8\v1.41\sources\common\doprnt.c estimated size: 785

myADC.c
		_adcRead       		CODE           	0ECE	0000	67
		_adcBusy       		CODE           	1156	0000	13
		_adcResultJust 		CODE           	1120	0000	15
		_adcClock      		CODE           	113C	0000	15
		_adcSetChannel 		CODE           	1092	0000	23
		_adcInterrupt  		CODE           	10BC	0000	17
		_adcStart      		CODE           	117E	0000	7
		_adcInit       		CODE           	0F4C	0000	51
		_adcPortConfig 		CODE           	112E	0000	15
		_adcAcqTime    		CODE           	107A	0000	25
		_adcStop       		CODE           	1178	0000	7
		_acdVoltRef    		CODE           	10A8	0000	21

myADC.c estimated size: 276

C:\Program Files (x86)\Microchip\xc8\v1.41\sources\common\Umul16.c
		___wmul        		CODE           	0FAA	0000	39

C:\Program Files (x86)\Microchip\xc8\v1.41\sources\common\Umul16.c estimated size: 39

C:\Program Files (x86)\Microchip\xc8\v1.41\sources\common\isdigit.c
		_isdigit       		CODE           	1014	0000	31

C:\Program Files (x86)\Microchip\xc8\v1.41\sources\common\isdigit.c estimated size: 31

myLCD.c
		_lcdGotoxy     		CODE           	0E8C	0000	67
		_lcdNible      		CODE           	0D16	0000	145
		_lcdByte       		CODE           	1062	0000	25
		_lcdCmd        		CODE           	1112	0000	15
		_lcdPutc       		CODE           	1104	0000	15
		_lcdPuts       		CODE           	0DF8	0000	83
		_lcdInit       		CODE           	0C80	0000	151

myLCD.c estimated size: 501

C:\Program Files (x86)\Microchip\xc8\v1.41\sources\common\float.c
		___ftpack      		CODE           	0BD2	0000	175

C:\Program Files (x86)\Microchip\xc8\v1.41\sources\common\float.c estimated size: 175

shared
		_dpowers       		SMALLCONST     	0601	0000	11
		__initialization		CODE           	0FF4	0000	23

shared estimated size: 34

C:\Program Files (x86)\Microchip\xc8\v1.41\sources\common\lwmod.c
		___lwmod       		CODE           	0E4A	0000	67

C:\Program Files (x86)\Microchip\xc8\v1.41\sources\common\lwmod.c estimated size: 67

C:\Program Files (x86)\Microchip\xc8\v1.41\sources\common\ftmul.c
		___ftmul       		CODE           	092A	0000	245

C:\Program Files (x86)\Microchip\xc8\v1.41\sources\common\ftmul.c estimated size: 245

C:\Program Files (x86)\Microchip\xc8\v1.41\sources\common\lwtoft.c
		___lwtoft      		CODE           	0FD0	0000	37

C:\Program Files (x86)\Microchip\xc8\v1.41\sources\common\lwtoft.c estimated size: 37

main.c
		_main          		CODE           	0B04	0000	207

main.c estimated size: 207

myUart.c
		_uartBusy      		CODE           	114A	0000	13
		_uartPuts      		CODE           	0F7E	0000	45
		_uartStart     		CODE           	1172	0000	7
		_uartIntMode   		CODE           	1032	0000	25
		_uartBaudrateMode		CODE           	10F6	0000	15
		_uartBitMode   		CODE           	104A	0000	25
		_uartRxMode    		CODE           	10E8	0000	15
		_uartSetBaudrate		CODE           	116A	0000	9
		_uartWrite     		CODE           	1162	0000	9
		_uartOpen      		CODE           	0F10	0000	61
		_uartSyncMode  		CODE           	10DA	0000	15
		_uartSynchMode 		CODE           	10CC	0000	15

myUart.c estimated size: 254

C:\Program Files (x86)\Microchip\xc8\v1.41\sources\common\ftdiv.c
		___ftdiv       		CODE           	0A1E	0000	231

C:\Program Files (x86)\Microchip\xc8\v1.41\sources\common\ftdiv.c estimated size: 231

